target datalayout = "e-m:e-p270:32:32-p271:32:32-p272:64:64-i64:64-i128:128-f80:128-n8:16:32:64-S128"
target triple = "x86_64-pc-linux-gnu"

@s_opts = internal global ptr @.str.18, align 8
@H5_optarg = external global ptr, align 8
@output_file = internal global ptr null, align 8
@input_file = internal global ptr null, align 8
@ub_file = internal global ptr null, align 8
@do_clobber = internal global i32 0, align 4

; Function Attrs: nounwind uwtable
define internal void @leave(i32 noundef %0) #0 {
  %2 = alloca i32, align 4
  store i32 %0, ptr %2, align 4, !tbaa !4
  call void @h5tools_close()
  %3 = load i32, ptr %2, align 4, !tbaa !4
  call void @exit(i32 noundef %3) #7
  unreachable
}

; Function Attrs: nounwind uwtable
define dso_local void @parse_command_line(i32 noundef %0, ptr noundef %1) #0 {
  %3 = alloca i32, align 4
  %4 = alloca ptr, align 8
  %5 = alloca i32, align 4
  store i32 %0, ptr %3, align 4, !tbaa !4
  store ptr %1, ptr %4, align 8, !tbaa !8
  call void @llvm.lifetime.start.p0(i64 4, ptr %5) #6
  store i32 0, ptr %5, align 4, !tbaa !4
  br label %6

6:                                                ; preds = %33, %2
  %7 = load i32, ptr %3, align 4, !tbaa !4
  %8 = load ptr, ptr %4, align 8, !tbaa !8
  %9 = load ptr, ptr @s_opts, align 8, !tbaa !11
  %10 = call i32 @H5_get_option(i32 noundef %7, ptr noundef %8, ptr noundef %9, ptr noundef @l_opts)
  store i32 %10, ptr %5, align 4, !tbaa !4
  %11 = icmp ne i32 %10, -1
  br i1 %11, label %12, label %34

12:                                               ; preds = %6
  %13 = load i32, ptr %5, align 4, !tbaa !4
  %14 = trunc i32 %13 to i8
  %15 = sext i8 %14 to i32
  switch i32 %15, label %31 [
    i32 111, label %16
    i32 105, label %19
    i32 117, label %22
    i32 99, label %25
    i32 104, label %26
    i32 86, label %28
    i32 63, label %30
  ]

16:                                               ; preds = %12
  %17 = load ptr, ptr @H5_optarg, align 8, !tbaa !11
  %18 = call noalias ptr @strdup(ptr noundef %17) #6
  store ptr %18, ptr @output_file, align 8, !tbaa !11
  br label %33

19:                                               ; preds = %12
  %20 = load ptr, ptr @H5_optarg, align 8, !tbaa !11
  %21 = call noalias ptr @strdup(ptr noundef %20) #6
  store ptr %21, ptr @input_file, align 8, !tbaa !11
  br label %33

22:                                               ; preds = %12
  %23 = load ptr, ptr @H5_optarg, align 8, !tbaa !11
  %24 = call noalias ptr @strdup(ptr noundef %23) #6
  store ptr %24, ptr @ub_file, align 8, !tbaa !11
  br label %33

25:                                               ; preds = %12
  store i32 1, ptr @do_clobber, align 4, !tbaa !4
  br label %33

26:                                               ; preds = %12
  %27 = call ptr @h5tools_getprogname()
  call void @usage(ptr noundef %27)
  call void @leave(i32 noundef 0)
  br label %33

28:                                               ; preds = %12
  %29 = call ptr @h5tools_getprogname()
  call void @print_version(ptr noundef %29)
  call void @leave(i32 noundef 0)
  br label %33

30:                                               ; preds = %12
  br label %31

31:                                               ; preds = %12, %30
  %32 = call ptr @h5tools_getprogname()
  call void @usage(ptr noundef %32)
  call void @leave(i32 noundef 1)
  br label %33

33:                                               ; preds = %31, %28, %26, %25, %22, %19, %16
  br label %6, !llvm.loop !13

34:                                               ; preds = %6
  call void @llvm.lifetime.end.p0(i64 4, ptr %5) #6
  ret void
}