; Function Attrs: nounwind uwtable
define dso_local void @parse_command_line(i32 noundef %0, ptr noundef %1) local_unnamed_addr #0 {
  %3 = tail call i32 @H5_get_option(i32 noundef %0, ptr noundef %1, ptr noundef nonnull @.str.18, ptr noundef nonnull @l_opts) #15
  %.not4 = icmp eq i32 %3, -1
  br i1 %.not4, label %._crit_edge, label %.lr.ph

.lr.ph:                                           ; preds = %2, %22
  %4 = phi i32 [ %23, %22 ], [ %3, %2 ]
  %sext = shl i32 %4, 24
  %5 = ashr exact i32 %sext, 24
  switch i32 %5, label %20 [
    i32 111, label %6
    i32 105, label %9
    i32 117, label %12
    i32 99, label %15
    i32 104, label %16
    i32 86, label %18
  ]

6:                                                ; preds = %.lr.ph
  %7 = load ptr, ptr @H5_optarg, align 8, !tbaa !4
  %8 = tail call noalias ptr @strdup(ptr noundef %7) #15
  store ptr %8, ptr @output_file, align 8, !tbaa !4
  br label %22

9:                                                ; preds = %.lr.ph
  %10 = load ptr, ptr @H5_optarg, align 8, !tbaa !4
  %11 = tail call noalias ptr @strdup(ptr noundef %10) #15
  store ptr %11, ptr @input_file, align 8, !tbaa !4
  br label %22

12:                                               ; preds = %.lr.ph
  %13 = load ptr, ptr @H5_optarg, align 8, !tbaa !4
  %14 = tail call noalias ptr @strdup(ptr noundef %13) #15
  store ptr %14, ptr @ub_file, align 8, !tbaa !4
  br label %22

15:                                               ; preds = %.lr.ph
  store i1 true, ptr @do_clobber, align 4
  br label %22

16:                                               ; preds = %.lr.ph
  %17 = tail call ptr @h5tools_getprogname() #15
  tail call fastcc void @usage(ptr noundef %17)
  tail call void @h5tools_close() #15
  tail call void @exit(i32 noundef 0) #16
  unreachable

18:                                               ; preds = %.lr.ph
  %19 = tail call ptr @h5tools_getprogname() #15
  tail call void @print_version(ptr noundef %19) #15
  tail call void @h5tools_close() #15
  tail call void @exit(i32 noundef 0) #16
  unreachable

20:                                               ; preds = %.lr.ph
  %21 = tail call ptr @h5tools_getprogname() #15
  tail call fastcc void @usage(ptr noundef %21)
  tail call void @h5tools_close() #15
  tail call void @exit(i32 noundef 1) #17
  unreachable

22:                                               ; preds = %15, %12, %9, %6
  %23 = tail call i32 @H5_get_option(i32 noundef %0, ptr noundef %1, ptr noundef nonnull @.str.18, ptr noundef nonnull @l_opts) #15
  %.not = icmp eq i32 %23, -1
  br i1 %.not, label %._crit_edge, label %.lr.ph, !llvm.loop !9

._crit_edge:                                      ; preds = %22, %2
  ret void
}